target datalayout = "e-m:e-p270:32:32-p271:32:32-p272:64:64-i64:64-i128:128-f80:128-n8:16:32:64-S128"
target triple = "x86_64-unknown-linux-gnu"

%"class.std::__cxx11::basic_string" = type { %"struct.std::__cxx11::basic_string<char>::_Alloc_hider", i64, %union.anon }
%"struct.std::__cxx11::basic_string<char>::_Alloc_hider" = type { ptr }
%union.anon = type { i64, [8 x i8] }
%"class.net::QuicSpdyStream" = type { %"class.net::ReliableQuicStream.base", ptr, ptr, i8, i8, %"class.std::__cxx11::basic_string", %"class.net::QuicHeaderList", i8, i8, %"class.std::__cxx11::basic_string", %"class.net::SpdyHeaderBlock" }
%"class.net::ReliableQuicStream.base" = type <{ ptr, %"class.std::__cxx11::list", i64, %"class.net::QuicStreamSequencer", i32, [4 x i8], ptr, i64, i64, i32, i32, i8, i8, i8, i8, i8, i8, i8, i8, i32, [4 x i8], %"class.net::QuicFlowController", ptr, i8 }>
%"class.std::__cxx11::list" = type { %"class.std::__cxx11::_List_base" }
%"class.std::__cxx11::_List_base" = type { %"struct.std::__cxx11::_List_base<net::ReliableQuicStream::PendingData, std::allocator<net::ReliableQuicStream::PendingData>>::_List_impl" }
%"struct.std::__cxx11::_List_base<net::ReliableQuicStream::PendingData, std::allocator<net::ReliableQuicStream::PendingData>>::_List_impl" = type { %"struct.std::__detail::_List_node_header" }
%"struct.std::__detail::_List_node_header" = type { %"struct.std::__detail::_List_node_base", i64 }
%"struct.std::__detail::_List_node_base" = type { ptr, ptr }
%"class.net::QuicStreamSequencer" = type <{ ptr, ptr, %"class.net::QuicStreamSequencerBuffer", i64, i8, [3 x i8], i32, i32, [4 x i8], ptr, i8, [7 x i8] }>
%"class.net::QuicStreamSequencerBuffer" = type { i64, i64, i64, %"class.std::__cxx11::list.0", i8, %"class.std::unique_ptr", i64, %"class.std::map" }
%"class.std::__cxx11::list.0" = type { %"class.std::__cxx11::_List_base.1" }
%"class.std::__cxx11::_List_base.1" = type { %"struct.std::__cxx11::_List_base<net::QuicStreamSequencerBuffer::Gap, std::allocator<net::QuicStreamSequencerBuffer::Gap>>::_List_impl" }
%"struct.std::__cxx11::_List_base<net::QuicStreamSequencerBuffer::Gap, std::allocator<net::QuicStreamSequencerBuffer::Gap>>::_List_impl" = type { %"struct.std::__detail::_List_node_header" }
%"class.std::unique_ptr" = type { %"struct.std::__uniq_ptr_data" }
%"struct.std::__uniq_ptr_data" = type { %"class.std::__uniq_ptr_impl" }
%"class.std::__uniq_ptr_impl" = type { %"class.std::tuple" }
%"class.std::tuple" = type { %"struct.std::_Tuple_impl" }
%"struct.std::_Tuple_impl" = type { %"struct.std::_Head_base.6" }
%"struct.std::_Head_base.6" = type { ptr }
%"class.std::map" = type { %"class.std::_Rb_tree" }
%"class.std::_Rb_tree" = type { %"struct.std::_Rb_tree<unsigned long, std::pair<const unsigned long, net::QuicStreamSequencerBuffer::FrameInfo>, std::_Select1st<std::pair<const unsigned long, net::QuicStreamSequencerBuffer::FrameInfo>>, std::less<unsigned long>>::_Rb_tree_impl" }
%"struct.std::_Rb_tree<unsigned long, std::pair<const unsigned long, net::QuicStreamSequencerBuffer::FrameInfo>, std::_Select1st<std::pair<const unsigned long, net::QuicStreamSequencerBuffer::FrameInfo>>, std::less<unsigned long>>::_Rb_tree_impl" = type { %"struct.std::_Rb_tree_key_compare", %"struct.std::_Rb_tree_header" }
%"struct.std::_Rb_tree_key_compare" = type { %"struct.std::less" }
%"struct.std::less" = type { i8 }
%"struct.std::_Rb_tree_header" = type { %"struct.std::_Rb_tree_node_base", i64 }
%"struct.std::_Rb_tree_node_base" = type { i32, ptr, ptr, ptr }
%"class.net::QuicFlowController" = type { ptr, i32, i32, i64, i64, i64, i64, i64, i64, i64, i8, i64, %"class.net::QuicTime" }
%"class.net::QuicTime" = type { i64 }
%"class.net::QuicHeaderList" = type { %"class.net::SpdyHeadersHandlerInterface", %"class.std::deque", i64 }
%"class.net::SpdyHeadersHandlerInterface" = type { ptr }
%"class.std::deque" = type { %"class.std::_Deque_base" }
%"class.std::_Deque_base" = type { %"struct.std::_Deque_base<std::pair<std::__cxx11::basic_string<char>, std::__cxx11::basic_string<char>>, std::allocator<std::pair<std::__cxx11::basic_string<char>, std::__cxx11::basic_string<char>>>>::_Deque_impl" }
%"struct.std::_Deque_base<std::pair<std::__cxx11::basic_string<char>, std::__cxx11::basic_string<char>>, std::allocator<std::pair<std::__cxx11::basic_string<char>, std::__cxx11::basic_string<char>>>>::_Deque_impl" = type { %"struct.std::_Deque_base<std::pair<std::__cxx11::basic_string<char>, std::__cxx11::basic_string<char>>, std::allocator<std::pair<std::__cxx11::basic_string<char>, std::__cxx11::basic_string<char>>>>::_Deque_impl_data" }
%"struct.std::_Deque_base<std::pair<std::__cxx11::basic_string<char>, std::__cxx11::basic_string<char>>, std::allocator<std::pair<std::__cxx11::basic_string<char>, std::__cxx11::basic_string<char>>>>::_Deque_impl_data" = type { ptr, i64, %"struct.std::_Deque_iterator", %"struct.std::_Deque_iterator" }
%"struct.std::_Deque_iterator" = type { ptr, ptr, ptr, ptr }
%"class.net::SpdyHeaderBlock" = type { %class.linked_hash_map, %"class.std::unique_ptr.27" }
%class.linked_hash_map = type { %"class.std::unordered_map", %"class.std::__cxx11::list.22" }
%"class.std::unordered_map" = type { %"class.std::_Hashtable" }
%"class.std::_Hashtable" = type { ptr, i64, %"struct.std::__detail::_Hash_node_base", i64, %"struct.std::__detail::_Prime_rehash_policy", ptr }
%"struct.std::__detail::_Hash_node_base" = type { ptr }
%"struct.std::__detail::_Prime_rehash_policy" = type { float, i64 }
%"class.std::__cxx11::list.22" = type { %"class.std::__cxx11::_List_base.23" }
%"class.std::__cxx11::_List_base.23" = type { %"struct.std::__cxx11::_List_base<std::pair<base::BasicStringPiece<std::string>, base::BasicStringPiece<std::string>>, std::allocator<std::pair<base::BasicStringPiece<std::string>, base::BasicStringPiece<std::string>>>>::_List_impl" }
%"struct.std::__cxx11::_List_base<std::pair<base::BasicStringPiece<std::string>, base::BasicStringPiece<std::string>>, std::allocator<std::pair<base::BasicStringPiece<std::string>, base::BasicStringPiece<std::string>>>>::_List_impl" = type { %"struct.std::__detail::_List_node_header" }
%"class.std::unique_ptr.27" = type { %"struct.std::__uniq_ptr_data.28" }
%"struct.std::__uniq_ptr_data.28" = type { %"class.std::__uniq_ptr_impl.29" }
%"class.std::__uniq_ptr_impl.29" = type { %"class.std::tuple.30" }
%"class.std::tuple.30" = type { %"struct.std::_Tuple_impl.31" }
%"struct.std::_Tuple_impl.31" = type { %"struct.std::_Head_base.34" }
%"struct.std::_Head_base.34" = type { ptr }
%"class.net::ReliableQuicStream" = type <{ ptr, %"class.std::__cxx11::list", i64, %"class.net::QuicStreamSequencer", i32, [4 x i8], ptr, i64, i64, i32, i32, i8, i8, i8, i8, i8, i8, i8, i8, i32, [4 x i8], %"class.net::QuicFlowController", ptr, i8, [7 x i8] }>

; Function Attrs: mustprogress nounwind uwtable
define linkonce_odr dso_local void @_ZN3net18ReliableQuicStream12set_fin_sentEb(ptr noundef nonnull align 8 dereferenceable(377) %this, i1 noundef zeroext %fin_sent) #3 comdat align 2 {
entry:
  %this.addr = alloca ptr, align 8
  %fin_sent.addr = alloca i8, align 1
  store ptr %this, ptr %this.addr, align 8
  %frombool = zext i1 %fin_sent to i8
  store i8 %frombool, ptr %fin_sent.addr, align 1
  %this1 = load ptr, ptr %this.addr, align 8
  %0 = load i8, ptr %fin_sent.addr, align 1
  %tobool = trunc i8 %0 to i1
  %fin_sent_ = getelementptr inbounds %"class.net::ReliableQuicStream", ptr %this1, i32 0, i32 14
  %frombool2 = zext i1 %tobool to i8
  store i8 %frombool2, ptr %fin_sent_, align 1
  ret void
}

; Function Attrs: mustprogress nounwind uwtable
define linkonce_odr dso_local noundef i32 @_ZNK3net18ReliableQuicStream2idEv(ptr noundef nonnull align 8 dereferenceable(377) %this) #3 comdat align 2 {
entry:
  %this.addr = alloca ptr, align 8
  store ptr %this, ptr %this.addr, align 8
  %this1 = load ptr, ptr %this.addr, align 8
  %id_ = getelementptr inbounds %"class.net::ReliableQuicStream", ptr %this1, i32 0, i32 4
  %0 = load i32, ptr %id_, align 8
  ret i32 %0
}

; Function Attrs: mustprogress uwtable
define dso_local noundef i64 @_ZN3net14QuicSpdyStream12WriteHeadersENS_15SpdyHeaderBlockEbPNS_24QuicAckListenerInterfaceE(ptr noundef nonnull align 8 dereferenceable(664) %this, ptr noundef %header_block, i1 noundef zeroext %fin, ptr noundef %ack_notifier_delegate) unnamed_addr #0 align 2 personality ptr @__gxx_personality_v0 {
entry:
  %this.addr = alloca ptr, align 8
  %header_block.indirect_addr = alloca ptr, align 8
  %fin.addr = alloca i8, align 1
  %ack_notifier_delegate.addr = alloca ptr, align 8
  %bytes_written = alloca i64, align 8
  %agg.tmp = alloca %"class.net::SpdyHeaderBlock", align 8
  %exn.slot = alloca ptr, align 8
  %ehselector.slot = alloca i32, align 4
  store ptr %this, ptr %this.addr, align 8
  store ptr %header_block, ptr %header_block.indirect_addr, align 8
  %frombool = zext i1 %fin to i8
  store i8 %frombool, ptr %fin.addr, align 1
  store ptr %ack_notifier_delegate, ptr %ack_notifier_delegate.addr, align 8
  %this1 = load ptr, ptr %this.addr, align 8
  %spdy_session_ = getelementptr inbounds %"class.net::QuicSpdyStream", ptr %this1, i32 0, i32 1
  %0 = load ptr, ptr %spdy_session_, align 8
  %call = call noundef i32 @_ZNK3net18ReliableQuicStream2idEv(ptr noundef nonnull align 8 dereferenceable(377) %this1)
  call void @_ZN3net15SpdyHeaderBlockC1EOS0_(ptr noundef nonnull align 8 dereferenceable(88) %agg.tmp, ptr noundef nonnull align 8 dereferenceable(88) %header_block)
  %1 = load i8, ptr %fin.addr, align 1
  %tobool = trunc i8 %1 to i1
  %priority_ = getelementptr inbounds %"class.net::QuicSpdyStream", ptr %this1, i32 0, i32 4
  %2 = load i8, ptr %priority_, align 1
  %3 = load ptr, ptr %ack_notifier_delegate.addr, align 8
  %vtable = load ptr, ptr %0, align 8
  %vfn = getelementptr inbounds ptr, ptr %vtable, i64 48
  %4 = load ptr, ptr %vfn, align 8
  %call2 = invoke noundef i64 %4(ptr noundef nonnull align 8 dereferenceable(2057) %0, i32 noundef %call, ptr noundef %agg.tmp, i1 noundef zeroext %tobool, i8 noundef zeroext %2, ptr noundef %3)
          to label %invoke.cont unwind label %lpad

invoke.cont:                                      ; preds = %entry
  call void @_ZN3net15SpdyHeaderBlockD1Ev(ptr noundef nonnull align 8 dereferenceable(88) %agg.tmp) #9
  store i64 %call2, ptr %bytes_written, align 8
  %5 = load i8, ptr %fin.addr, align 1
  %tobool3 = trunc i8 %5 to i1
  br i1 %tobool3, label %if.then, label %if.end

if.then:                                          ; preds = %invoke.cont
  call void @_ZN3net18ReliableQuicStream12set_fin_sentEb(ptr noundef nonnull align 8 dereferenceable(377) %this1, i1 noundef zeroext true)
  %vtable4 = load ptr, ptr %this1, align 8
  %vfn5 = getelementptr inbounds ptr, ptr %vtable4, i64 14
  %6 = load ptr, ptr %vfn5, align 8
  call void %6(ptr noundef nonnull align 8 dereferenceable(664) %this1)
  br label %if.end

lpad:                                             ; preds = %entry
  %7 = landingpad { ptr, i32 }
          cleanup
  %8 = extractvalue { ptr, i32 } %7, 0
  store ptr %8, ptr %exn.slot, align 8
  %9 = extractvalue { ptr, i32 } %7, 1
  store i32 %9, ptr %ehselector.slot, align 4
  call void @_ZN3net15SpdyHeaderBlockD1Ev(ptr noundef nonnull align 8 dereferenceable(88) %agg.tmp) #9
  br label %eh.resume

if.end:                                           ; preds = %if.then, %invoke.cont
  %10 = load i64, ptr %bytes_written, align 8
  ret i64 %10

eh.resume:                                        ; preds = %lpad
  %exn = load ptr, ptr %exn.slot, align 8
  %sel = load i32, ptr %ehselector.slot, align 4
  %lpad.val = insertvalue { ptr, i32 } poison, ptr %exn, 0
  %lpad.val6 = insertvalue { ptr, i32 } %lpad.val, i32 %sel, 1
  resume { ptr, i32 } %lpad.val6
}