; Function Attrs: mustprogress uwtable
define dso_local noundef i64 @_ZN3net14QuicSpdyStream12WriteHeadersENS_15SpdyHeaderBlockEbPNS_24QuicAckListenerInterfaceE(ptr noundef nonnull align 8 dereferenceable(664) %this, ptr noundef nonnull %header_block, i1 noundef zeroext %fin, ptr noundef %ack_notifier_delegate) unnamed_addr #0 align 2 personality ptr @__gxx_personality_v0 {
entry:
  %agg.tmp = alloca %"class.net::SpdyHeaderBlock", align 8
  %spdy_session_ = getelementptr inbounds i8, ptr %this, i64 384
  %0 = load ptr, ptr %spdy_session_, align 8
  %id_.i = getelementptr inbounds i8, ptr %this, i64 216
  %1 = load i32, ptr %id_.i, align 8
  call void @_ZN3net15SpdyHeaderBlockC1EOS0_(ptr noundef nonnull align 8 dereferenceable(88) %agg.tmp, ptr noundef nonnull align 8 dereferenceable(88) %header_block)
  %priority_ = getelementptr inbounds i8, ptr %this, i64 401
  %2 = load i8, ptr %priority_, align 1
  %vtable = load ptr, ptr %0, align 8
  %vfn = getelementptr inbounds i8, ptr %vtable, i64 384
  %3 = load ptr, ptr %vfn, align 8
  %call2 = invoke noundef i64 %3(ptr noundef nonnull align 8 dereferenceable(2057) %0, i32 noundef %1, ptr noundef nonnull %agg.tmp, i1 noundef zeroext %fin, i8 noundef zeroext %2, ptr noundef %ack_notifier_delegate)
          to label %invoke.cont unwind label %lpad

invoke.cont:                                      ; preds = %entry
  call void @_ZN3net15SpdyHeaderBlockD1Ev(ptr noundef nonnull align 8 dereferenceable(88) %agg.tmp) #12
  br i1 %fin, label %if.then, label %if.end

if.then:                                          ; preds = %invoke.cont
  %fin_sent_.i = getelementptr inbounds i8, ptr %this, i64 259
  store i8 1, ptr %fin_sent_.i, align 1
  %vtable4 = load ptr, ptr %this, align 8
  %vfn5 = getelementptr inbounds i8, ptr %vtable4, i64 112
  %4 = load ptr, ptr %vfn5, align 8
  call void %4(ptr noundef nonnull align 8 dereferenceable(664) %this)
  br label %if.end

lpad:                                             ; preds = %entry
  %5 = landingpad { ptr, i32 }
          cleanup
  call void @_ZN3net15SpdyHeaderBlockD1Ev(ptr noundef nonnull align 8 dereferenceable(88) %agg.tmp) #12
  resume { ptr, i32 } %5

if.end:                                           ; preds = %if.then, %invoke.cont
  ret i64 %call2
}